Certificate:
    Data:
        Version: 3 (0x2)
        Serial Number: 1 (0x1)
        Signature Algorithm: sha256WithRSAEncryption
        Issuer: C=GB, ST=London, L=London, O=Aerospike, CN=tls1
        Validity
            Not Before: Jun 13 16:50:30 2023 GMT
            Not After : Jun 12 16:50:30 2024 GMT
        Subject: C=GB, ST=London, O=Aerospike, CN=tls1
        Subject Public Key Info:
            Public Key Algorithm: rsaEncryption
                RSA Public-Key: (2048 bit)
                Modulus:
                    00:99:34:9c:ce:9d:69:4c:67:12:91:ec:d8:29:97:
                    da:4b:b9:48:7e:ea:1d:ef:fb:81:10:80:58:32:fa:
                    3b:0f:88:0a:59:1e:ab:46:dd:6f:71:d7:45:a0:91:
                    76:25:6b:15:6b:3d:54:f7:aa:a3:07:ef:9e:0d:fd:
                    51:90:31:c1:a1:e8:f1:3a:03:9a:4e:60:b2:2c:8d:
                    d9:fe:1e:9b:05:83:32:5a:03:6d:00:95:2c:4d:26:
                    c4:2f:ac:8c:2e:92:dd:ea:76:e7:98:62:77:5a:90:
                    68:0d:7c:7a:c8:c4:f0:25:78:c4:23:07:86:bc:21:
                    23:7f:04:d1:e6:b3:e8:61:d7:38:51:ce:e6:03:76:
                    14:b1:81:40:c4:2f:61:2f:e3:4f:ea:19:49:46:82:
                    a7:e6:1b:13:88:86:30:3b:6a:08:1e:0a:a8:19:4d:
                    66:a5:4b:2d:1e:f2:7d:b8:74:3d:ed:72:92:ff:a2:
                    0e:fb:5f:db:24:69:1e:a6:79:a2:67:3b:59:88:02:
                    83:46:12:7d:17:7f:f1:be:9f:24:5a:34:93:13:43:
                    45:df:13:6f:59:af:a4:a5:13:6c:f1:04:8e:a1:c3:
                    07:ca:cc:22:54:c3:8a:c8:92:51:7d:7b:7d:6f:32:
                    60:f4:28:64:3b:18:f5:df:3c:3f:e7:f1:56:2e:31:
                    9b:93
                Exponent: 65537 (0x10001)
        X509v3 extensions:
            X509v3 Basic Constraints: 
                CA:FALSE
            X509v3 Subject Key Identifier: 
                BA:0A:C7:74:51:B6:9F:6D:67:7E:34:4A:B6:D0:BC:90:CF:B5:B4:C3
            X509v3 Subject Alternative Name: 
                DNS:tls1, IP Address:127.0.0.1
    Signature Algorithm: sha256WithRSAEncryption
         08:1b:7e:18:fe:39:bc:8d:4f:92:a4:07:41:d6:7f:0e:fc:54:
         a0:04:87:71:c2:55:4f:8f:37:25:1f:42:ea:fc:52:87:21:53:
         11:3b:d2:59:d7:be:1d:d1:d9:bf:1c:1c:70:11:e6:7d:10:fa:
         0c:14:d8:3d:f2:4d:9e:73:01:48:65:95:72:04:65:22:93:97:
         48:8e:c7:33:a7:49:73:6e:33:3c:30:a2:39:2f:b0:64:df:77:
         06:de:bd:7c:2d:90:56:09:ed:60:ff:81:66:ae:f5:68:15:ca:
         f1:54:3e:cc:6e:a4:f8:82:3b:37:59:e3:f8:fe:41:9b:24:ec:
         ff:00:04:50:23:e7:55:6d:6c:04:4d:37:31:17:be:c1:da:72:
         9d:49:e5:a3:d2:1f:e7:56:bb:94:f5:3a:cd:92:55:6d:af:7c:
         45:dc:e4:18:c1:fd:96:38:b4:64:2b:73:c8:8f:db:09:f4:b3:
         42:ce:15:35:4f:23:96:2b:16:b6:12:c3:ce:ca:e2:6d:e0:99:
         0d:3d:b9:17:2d:4c:ec:99:35:5c:e0:cf:32:8a:a6:ed:6f:36:
         d1:14:be:ae:c4:5d:96:67:67:70:bc:0e:63:cf:d6:fc:2e:72:
         9a:db:c7:97:c6:3c:50:36:b0:fe:42:89:8a:d9:74:60:4e:0e:
         15:8a:5c:4b
-----BEGIN CERTIFICATE-----
MIIDUTCCAjmgAwIBAgIBATANBgkqhkiG9w0BAQsFADBSMQswCQYDVQQGEwJHQjEP
MA0GA1UECBMGTG9uZG9uMQ8wDQYDVQQHEwZMb25kb24xEjAQBgNVBAoTCUFlcm9z
cGlrZTENMAsGA1UEAxMEdGxzMTAeFw0yMzA2MTMxNjUwMzBaFw0yNDA2MTIxNjUw
MzBaMEExCzAJBgNVBAYTAkdCMQ8wDQYDVQQIEwZMb25kb24xEjAQBgNVBAoTCUFl
cm9zcGlrZTENMAsGA1UEAxMEdGxzMTCCASIwDQYJKoZIhvcNAQEBBQADggEPADCC
AQoCggEBAJk0nM6daUxnEpHs2CmX2ku5SH7qHe/7gRCAWDL6Ow+IClkeq0bdb3HX
RaCRdiVrFWs9VPeqowfvng39UZAxwaHo8ToDmk5gsiyN2f4emwWDMloDbQCVLE0m
xC+sjC6S3ep255hid1qQaA18esjE8CV4xCMHhrwhI38E0eaz6GHXOFHO5gN2FLGB
QMQvYS/jT+oZSUaCp+YbE4iGMDtqCB4KqBlNZqVLLR7yfbh0Pe1ykv+iDvtf2yRp
HqZ5omc7WYgCg0YSfRd/8b6fJFo0kxNDRd8Tb1mvpKUTbPEEjqHDB8rMIlTDisiS
UX17fW8yYPQoZDsY9d88P+fxVi4xm5MCAwEAAaNDMEEwCQYDVR0TBAIwADAdBgNV
HQ4EFgQUugrHdFG2n21nfjRKttC8kM+1tMMwFQYDVR0RBA4wDIIEdGxzMYcEfwAA
ATANBgkqhkiG9w0BAQsFAAOCAQEACBt+GP45vI1PkqQHQdZ/DvxUoASHccJVT483
JR9C6vxShyFTETvSWde+HdHZvxwccBHmfRD6DBTYPfJNnnMBSGWVcgRlIpOXSI7H
M6dJc24zPDCiOS+wZN93Bt69fC2QVgntYP+BZq71aBXK8VQ+zG6k+II7N1nj+P5B
myTs/wAEUCPnVW1sBE03MRe+wdpynUnlo9If51a7lPU6zZJVba98RdzkGMH9lji0
ZCtzyI/bCfSzQs4VNU8jlisWthLDzsribeCZDT25Fy1M7Jk1XODPMoqm7W820RS+
rsRdlmdncLwOY8/W/C5ymtvHl8Y8UDaw/kKJitl0YE4OFYpcSw==
-----END CERTIFICATE-----
